; Function Attrs: nounwind uwtable
define i32 @DeriveHandshakeSecret(ptr noundef readonly captures(address_is_null) %0) local_unnamed_addr #0 {
  %2 = alloca [64 x i8], align 16
  call void @llvm.lifetime.start.p0(i64 64, ptr nonnull %2) #11
  %3 = icmp eq ptr %0, null
  br i1 %3, label %27, label %4

4:                                                ; preds = %1
  %5 = getelementptr inbounds nuw i8, ptr %0, i64 24
  %6 = load ptr, ptr %5, align 8, !tbaa !45
  %7 = icmp eq ptr %6, null
  br i1 %7, label %27, label %8

8:                                                ; preds = %4
  %9 = getelementptr inbounds nuw i8, ptr %6, i64 125
  %10 = getelementptr inbounds nuw i8, ptr %0, i64 724
  %11 = load i8, ptr %10, align 2, !tbaa !46
  %12 = zext i8 %11 to i32
  %13 = call fastcc i32 @DeriveKeyMsg(ptr noundef %0, ptr noundef %2, ptr noundef nonnull %9, i32 noundef %12)
  %.not = icmp eq i32 %13, 0
  br i1 %.not, label %14, label %27

14:                                               ; preds = %8
  %15 = load ptr, ptr %5, align 8, !tbaa !45
  %16 = getelementptr inbounds nuw i8, ptr %15, i64 8
  %17 = load ptr, ptr %16, align 8, !tbaa !47
  %18 = getelementptr inbounds nuw i8, ptr %0, i64 727
  %19 = load i8, ptr %18, align 1, !tbaa !49
  %20 = zext i8 %19 to i32
  %21 = getelementptr inbounds nuw i8, ptr %15, i64 16
  %22 = load i32, ptr %21, align 8, !tbaa !50
  %23 = load i8, ptr %10, align 2, !tbaa !46
  %switch.selectcmp.i = icmp eq i8 %23, 5
  %switch.select.i = select i1 %switch.selectcmp.i, i32 7, i32 0
  %switch.selectcmp2.i = icmp eq i8 %23, 4
  %switch.select3.i = select i1 %switch.selectcmp2.i, i32 6, i32 %switch.select.i
  %24 = getelementptr i8, ptr %0, i64 176
  %.val = load ptr, ptr %24, align 16, !tbaa !43
  %25 = getelementptr i8, ptr %0, i64 1204
  %.val17 = load i32, ptr %25, align 4, !tbaa !44
  %26 = call i32 @wc_Tls13_HKDF_Extract_ex(ptr noundef %17, ptr noundef nonnull %2, i32 noundef range(i32 0, 256) %20, ptr noundef %17, i32 noundef %22, i32 noundef range(i32 0, 8) %switch.select3.i, ptr noundef %.val, i32 noundef %.val17) #11
  br label %27

27:                                               ; preds = %8, %1, %4, %14
  %.0 = phi i32 [ %26, %14 ], [ -173, %4 ], [ -173, %1 ], [ %13, %8 ]
  call void @llvm.lifetime.end.p0(i64 64, ptr nonnull %2) #11
  ret i32 %.0
}